; ModuleID = '14/253.c'
source_filename = "14/253.c"
target datalayout = "e-m:e-p270:32:32-p271:32:32-p272:64:64-i64:64-f80:128-n8:16:32:64-S128"
target triple = "x86_64-pc-linux-gnu"

%struct.student = type { i32, i32, i32 }

@.str = private unnamed_addr constant [3 x i8] c"%d\00", align 1
@.str.1 = private unnamed_addr constant [9 x i8] c"%d %d %d\00", align 1
@.str.2 = private unnamed_addr constant [7 x i8] c"%d %d\0A\00", align 1

; Function Attrs: noinline nounwind uwtable
define dso_local i32 @main() #0 {
  %1 = alloca i32, align 4
  %2 = alloca i32, align 4
  %3 = alloca i32, align 4
  %4 = alloca [100000 x %struct.student], align 16
  %5 = alloca %struct.student, align 4
  store i32 0, i32* %1, align 4
  %6 = call i32 (i8*, ...) @__isoc99_scanf(i8* getelementptr inbounds ([3 x i8], [3 x i8]* @.str, i64 0, i64 0), i32* %2)
  store i32 0, i32* %3, align 4
  br label %7

7:                                                ; preds = %25, %0
  %8 = load i32, i32* %3, align 4
  %9 = load i32, i32* %2, align 4
  %10 = icmp slt i32 %8, %9
  br i1 %10, label %11, label %28

11:                                               ; preds = %7
  %12 = load i32, i32* %3, align 4
  %13 = sext i32 %12 to i64
  %14 = getelementptr inbounds [100000 x %struct.student], [100000 x %struct.student]* %4, i64 0, i64 %13
  %15 = getelementptr inbounds %struct.student, %struct.student* %14, i32 0, i32 0
  %16 = load i32, i32* %3, align 4
  %17 = sext i32 %16 to i64
  %18 = getelementptr inbounds [100000 x %struct.student], [100000 x %struct.student]* %4, i64 0, i64 %17
  %19 = getelementptr inbounds %struct.student, %struct.student* %18, i32 0, i32 1
  %20 = load i32, i32* %3, align 4
  %21 = sext i32 %20 to i64
  %22 = getelementptr inbounds [100000 x %struct.student], [100000 x %struct.student]* %4, i64 0, i64 %21
  %23 = getelementptr inbounds %struct.student, %struct.student* %22, i32 0, i32 2
  %24 = call i32 (i8*, ...) @__isoc99_scanf(i8* getelementptr inbounds ([9 x i8], [9 x i8]* @.str.1, i64 0, i64 0), i32* %15, i32* %19, i32* %23)
  br label %25

25:                                               ; preds = %11
  %26 = load i32, i32* %3, align 4
  %27 = add nsw i32 %26, 1
  store i32 %27, i32* %3, align 4
  br label %7

28:                                               ; preds = %7
  store i32 0, i32* %3, align 4
  br label %29

29:                                               ; preds = %82, %28
  %30 = load i32, i32* %3, align 4
  %31 = load i32, i32* %2, align 4
  %32 = sub nsw i32 %31, 1
  %33 = icmp slt i32 %30, %32
  br i1 %33, label %34, label %85

34:                                               ; preds = %29
  %35 = load i32, i32* %3, align 4
  %36 = sext i32 %35 to i64
  %37 = getelementptr inbounds [100000 x %struct.student], [100000 x %struct.student]* %4, i64 0, i64 %36
  %38 = getelementptr inbounds %struct.student, %struct.student* %37, i32 0, i32 1
  %39 = load i32, i32* %38, align 4
  %40 = load i32, i32* %3, align 4
  %41 = sext i32 %40 to i64
  %42 = getelementptr inbounds [100000 x %struct.student], [100000 x %struct.student]* %4, i64 0, i64 %41
  %43 = getelementptr inbounds %struct.student, %struct.student* %42, i32 0, i32 2
  %44 = load i32, i32* %43, align 4
  %45 = add nsw i32 %39, %44
  %46 = load i32, i32* %3, align 4
  %47 = add nsw i32 %46, 1
  %48 = sext i32 %47 to i64
  %49 = getelementptr inbounds [100000 x %struct.student], [100000 x %struct.student]* %4, i64 0, i64 %48
  %50 = getelementptr inbounds %struct.student, %struct.student* %49, i32 0, i32 1
  %51 = load i32, i32* %50, align 4
  %52 = load i32, i32* %3, align 4
  %53 = add nsw i32 %52, 1
  %54 = sext i32 %53 to i64
  %55 = getelementptr inbounds [100000 x %struct.student], [100000 x %struct.student]* %4, i64 0, i64 %54
  %56 = getelementptr inbounds %struct.student, %struct.student* %55, i32 0, i32 2
  %57 = load i32, i32* %56, align 4
  %58 = add nsw i32 %51, %57
  %59 = icmp sge i32 %45, %58
  br i1 %59, label %60, label %81

60:                                               ; preds = %34
  %61 = load i32, i32* %3, align 4
  %62 = sext i32 %61 to i64
  %63 = getelementptr inbounds [100000 x %struct.student], [100000 x %struct.student]* %4, i64 0, i64 %62
  %64 = bitcast %struct.student* %5 to i8*
  %65 = bitcast %struct.student* %63 to i8*
  call void @llvm.memcpy.p0i8.p0i8.i64(i8* align 4 %64, i8* align 4 %65, i64 12, i1 false)
  %66 = load i32, i32* %3, align 4
  %67 = sext i32 %66 to i64
  %68 = getelementptr inbounds [100000 x %struct.student], [100000 x %struct.student]* %4, i64 0, i64 %67
  %69 = load i32, i32* %3, align 4
  %70 = add nsw i32 %69, 1
  %71 = sext i32 %70 to i64
  %72 = getelementptr inbounds [100000 x %struct.student], [100000 x %struct.student]* %4, i64 0, i64 %71
  %73 = bitcast %struct.student* %68 to i8*
  %74 = bitcast %struct.student* %72 to i8*
  call void @llvm.memcpy.p0i8.p0i8.i64(i8* align 4 %73, i8* align 4 %74, i64 12, i1 false)
  %75 = load i32, i32* %3, align 4
  %76 = add nsw i32 %75, 1
  %77 = sext i32 %76 to i64
  %78 = getelementptr inbounds [100000 x %struct.student], [100000 x %struct.student]* %4, i64 0, i64 %77
  %79 = bitcast %struct.student* %78 to i8*
  %80 = bitcast %struct.student* %5 to i8*
  call void @llvm.memcpy.p0i8.p0i8.i64(i8* align 4 %79, i8* align 4 %80, i64 12, i1 false)
  br label %81

81:                                               ; preds = %60, %34
  br label %82

82:                                               ; preds = %81
  %83 = load i32, i32* %3, align 4
  %84 = add nsw i32 %83, 1
  store i32 %84, i32* %3, align 4
  br label %29

85:                                               ; preds = %29
  store i32 0, i32* %3, align 4
  br label %86

86:                                               ; preds = %139, %85
  %87 = load i32, i32* %3, align 4
  %88 = load i32, i32* %2, align 4
  %89 = sub nsw i32 %88, 2
  %90 = icmp slt i32 %87, %89
  br i1 %90, label %91, label %142

91:                                               ; preds = %86
  %92 = load i32, i32* %3, align 4
  %93 = sext i32 %92 to i64
  %94 = getelementptr inbounds [100000 x %struct.student], [100000 x %struct.student]* %4, i64 0, i64 %93
  %95 = getelementptr inbounds %struct.student, %struct.student* %94, i32 0, i32 1
  %96 = load i32, i32* %95, align 4
  %97 = load i32, i32* %3, align 4
  %98 = sext i32 %97 to i64
  %99 = getelementptr inbounds [100000 x %struct.student], [100000 x %struct.student]* %4, i64 0, i64 %98
  %100 = getelementptr inbounds %struct.student, %struct.student* %99, i32 0, i32 2
  %101 = load i32, i32* %100, align 4
  %102 = add nsw i32 %96, %101
  %103 = load i32, i32* %3, align 4
  %104 = add nsw i32 %103, 1
  %105 = sext i32 %104 to i64
  %106 = getelementptr inbounds [100000 x %struct.student], [100000 x %struct.student]* %4, i64 0, i64 %105
  %107 = getelementptr inbounds %struct.student, %struct.student* %106, i32 0, i32 1
  %108 = load i32, i32* %107, align 4
  %109 = load i32, i32* %3, align 4
  %110 = add nsw i32 %109, 1
  %111 = sext i32 %110 to i64
  %112 = getelementptr inbounds [100000 x %struct.student], [100000 x %struct.student]* %4, i64 0, i64 %111
  %113 = getelementptr inbounds %struct.student, %struct.student* %112, i32 0, i32 2
  %114 = load i32, i32* %113, align 4
  %115 = add nsw i32 %108, %114
  %116 = icmp sge i32 %102, %115
  br i1 %116, label %117, label %138

117:                                              ; preds = %91
  %118 = load i32, i32* %3, align 4
  %119 = sext i32 %118 to i64
  %120 = getelementptr inbounds [100000 x %struct.student], [100000 x %struct.student]* %4, i64 0, i64 %119
  %121 = bitcast %struct.student* %5 to i8*
  %122 = bitcast %struct.student* %120 to i8*
  call void @llvm.memcpy.p0i8.p0i8.i64(i8* align 4 %121, i8* align 4 %122, i64 12, i1 false)
  %123 = load i32, i32* %3, align 4
  %124 = sext i32 %123 to i64
  %125 = getelementptr inbounds [100000 x %struct.student], [100000 x %struct.student]* %4, i64 0, i64 %124
  %126 = load i32, i32* %3, align 4
  %127 = add nsw i32 %126, 1
  %128 = sext i32 %127 to i64
  %129 = getelementptr inbounds [100000 x %struct.student], [100000 x %struct.student]* %4, i64 0, i64 %128
  %130 = bitcast %struct.student* %125 to i8*
  %131 = bitcast %struct.student* %129 to i8*
  call void @llvm.memcpy.p0i8.p0i8.i64(i8* align 4 %130, i8* align 4 %131, i64 12, i1 false)
  %132 = load i32, i32* %3, align 4
  %133 = add nsw i32 %132, 1
  %134 = sext i32 %133 to i64
  %135 = getelementptr inbounds [100000 x %struct.student], [100000 x %struct.student]* %4, i64 0, i64 %134
  %136 = bitcast %struct.student* %135 to i8*
  %137 = bitcast %struct.student* %5 to i8*
  call void @llvm.memcpy.p0i8.p0i8.i64(i8* align 4 %136, i8* align 4 %137, i64 12, i1 false)
  br label %138

138:                                              ; preds = %117, %91
  br label %139

139:                                              ; preds = %138
  %140 = load i32, i32* %3, align 4
  %141 = add nsw i32 %140, 1
  store i32 %141, i32* %3, align 4
  br label %86

142:                                              ; preds = %86
  store i32 0, i32* %3, align 4
  br label %143

143:                                              ; preds = %196, %142
  %144 = load i32, i32* %3, align 4
  %145 = load i32, i32* %2, align 4
  %146 = sub nsw i32 %145, 3
  %147 = icmp slt i32 %144, %146
  br i1 %147, label %148, label %199

148:                                              ; preds = %143
  %149 = load i32, i32* %3, align 4
  %150 = sext i32 %149 to i64
  %151 = getelementptr inbounds [100000 x %struct.student], [100000 x %struct.student]* %4, i64 0, i64 %150
  %152 = getelementptr inbounds %struct.student, %struct.student* %151, i32 0, i32 1
  %153 = load i32, i32* %152, align 4
  %154 = load i32, i32* %3, align 4
  %155 = sext i32 %154 to i64
  %156 = getelementptr inbounds [100000 x %struct.student], [100000 x %struct.student]* %4, i64 0, i64 %155
  %157 = getelementptr inbounds %struct.student, %struct.student* %156, i32 0, i32 2
  %158 = load i32, i32* %157, align 4
  %159 = add nsw i32 %153, %158
  %160 = load i32, i32* %3, align 4
  %161 = add nsw i32 %160, 1
  %162 = sext i32 %161 to i64
  %163 = getelementptr inbounds [100000 x %struct.student], [100000 x %struct.student]* %4, i64 0, i64 %162
  %164 = getelementptr inbounds %struct.student, %struct.student* %163, i32 0, i32 1
  %165 = load i32, i32* %164, align 4
  %166 = load i32, i32* %3, align 4
  %167 = add nsw i32 %166, 1
  %168 = sext i32 %167 to i64
  %169 = getelementptr inbounds [100000 x %struct.student], [100000 x %struct.student]* %4, i64 0, i64 %168
  %170 = getelementptr inbounds %struct.student, %struct.student* %169, i32 0, i32 2
  %171 = load i32, i32* %170, align 4
  %172 = add nsw i32 %165, %171
  %173 = icmp sge i32 %159, %172
  br i1 %173, label %174, label %195

174:                                              ; preds = %148
  %175 = load i32, i32* %3, align 4
  %176 = sext i32 %175 to i64
  %177 = getelementptr inbounds [100000 x %struct.student], [100000 x %struct.student]* %4, i64 0, i64 %176
  %178 = bitcast %struct.student* %5 to i8*
  %179 = bitcast %struct.student* %177 to i8*
  call void @llvm.memcpy.p0i8.p0i8.i64(i8* align 4 %178, i8* align 4 %179, i64 12, i1 false)
  %180 = load i32, i32* %3, align 4
  %181 = sext i32 %180 to i64
  %182 = getelementptr inbounds [100000 x %struct.student], [100000 x %struct.student]* %4, i64 0, i64 %181
  %183 = load i32, i32* %3, align 4
  %184 = add nsw i32 %183, 1
  %185 = sext i32 %184 to i64
  %186 = getelementptr inbounds [100000 x %struct.student], [100000 x %struct.student]* %4, i64 0, i64 %185
  %187 = bitcast %struct.student* %182 to i8*
  %188 = bitcast %struct.student* %186 to i8*
  call void @llvm.memcpy.p0i8.p0i8.i64(i8* align 4 %187, i8* align 4 %188, i64 12, i1 false)
  %189 = load i32, i32* %3, align 4
  %190 = add nsw i32 %189, 1
  %191 = sext i32 %190 to i64
  %192 = getelementptr inbounds [100000 x %struct.student], [100000 x %struct.student]* %4, i64 0, i64 %191
  %193 = bitcast %struct.student* %192 to i8*
  %194 = bitcast %struct.student* %5 to i8*
  call void @llvm.memcpy.p0i8.p0i8.i64(i8* align 4 %193, i8* align 4 %194, i64 12, i1 false)
  br label %195

195:                                              ; preds = %174, %148
  br label %196

196:                                              ; preds = %195
  %197 = load i32, i32* %3, align 4
  %198 = add nsw i32 %197, 1
  store i32 %198, i32* %3, align 4
  br label %143

199:                                              ; preds = %143
  %200 = load i32, i32* %2, align 4
  %201 = sub nsw i32 %200, 1
  store i32 %201, i32* %3, align 4
  br label %202

202:                                              ; preds = %225, %199
  %203 = load i32, i32* %3, align 4
  %204 = load i32, i32* %2, align 4
  %205 = sub nsw i32 %204, 4
  %206 = icmp sgt i32 %203, %205
  br i1 %206, label %207, label %228

207:                                              ; preds = %202
  %208 = load i32, i32* %3, align 4
  %209 = sext i32 %208 to i64
  %210 = getelementptr inbounds [100000 x %struct.student], [100000 x %struct.student]* %4, i64 0, i64 %209
  %211 = getelementptr inbounds %struct.student, %struct.student* %210, i32 0, i32 0
  %212 = load i32, i32* %211, align 4
  %213 = load i32, i32* %3, align 4
  %214 = sext i32 %213 to i64
  %215 = getelementptr inbounds [100000 x %struct.student], [100000 x %struct.student]* %4, i64 0, i64 %214
  %216 = getelementptr inbounds %struct.student, %struct.student* %215, i32 0, i32 1
  %217 = load i32, i32* %216, align 4
  %218 = load i32, i32* %3, align 4
  %219 = sext i32 %218 to i64
  %220 = getelementptr inbounds [100000 x %struct.student], [100000 x %struct.student]* %4, i64 0, i64 %219
  %221 = getelementptr inbounds %struct.student, %struct.student* %220, i32 0, i32 2
  %222 = load i32, i32* %221, align 4
  %223 = add nsw i32 %217, %222
  %224 = call i32 (i8*, ...) @printf(i8* getelementptr inbounds ([7 x i8], [7 x i8]* @.str.2, i64 0, i64 0), i32 %212, i32 %223)
  br label %225

225:                                              ; preds = %207
  %226 = load i32, i32* %3, align 4
  %227 = add nsw i32 %226, -1
  store i32 %227, i32* %3, align 4
  br label %202

228:                                              ; preds = %202
  ret i32 0
}

declare dso_local i32 @__isoc99_scanf(i8*, ...) #1

; Function Attrs: argmemonly nounwind willreturn
declare void @llvm.memcpy.p0i8.p0i8.i64(i8* noalias nocapture writeonly, i8* noalias nocapture readonly, i64, i1 immarg) #2

declare dso_local i32 @printf(i8*, ...) #1


!llvm.module.flags = !{!0}
!llvm.ident = !{!1}

!0 = !{i32 1, !"wchar_size", i32 4}
!1 = !{!"clang version 10.0.0-4ubuntu1 "}
